target datalayout = "e-m:e-p270:32:32-p271:32:32-p272:64:64-i64:64-i128:128-f80:128-n8:16:32:64-S128"
target triple = "x86_64-pc-linux-gnu"

%class.LogDecorators = type { i32 }
%class.LogFileStreamOutput = type { %class.LogOutput.base, i8, i8, ptr, [12 x i64] }
%class.LogOutput.base = type <{ ptr, i8, [7 x i8], %class.stringStream, %class.LogDecorators }>
%class.stringStream = type <{ %class.outputStream, ptr, i64, i64, i8, [48 x i8], [7 x i8] }>
%class.outputStream = type { ptr, i32, i8, i32, i64, %class.TimeStamp, ptr, i64 }
%class.TimeStamp = type { i64 }
%class.FileLocker = type { ptr }

; Function Attrs: mustprogress nounwind uwtable
define linkonce_odr hidden void @_ZN10FileLockerD2Ev(ptr noundef nonnull align 8 dereferenceable(8) %0) unnamed_addr #1 comdat align 2 {
  %2 = alloca ptr, align 8
  store ptr %0, ptr %2, align 8
  %3 = load ptr, ptr %2, align 8
  %4 = getelementptr inbounds %class.FileLocker, ptr %3, i32 0, i32 0
  %5 = load ptr, ptr %4, align 8
  call void @_ZN2os11funlockfileEP8_IO_FILE(ptr noundef %5)
  ret void
}

; Function Attrs: mustprogress nounwind uwtable
define linkonce_odr hidden void @_ZN10FileLockerC2EP8_IO_FILE(ptr noundef nonnull align 8 dereferenceable(8) %0, ptr noundef %1) unnamed_addr #1 comdat align 2 {
  %3 = alloca ptr, align 8
  %4 = alloca ptr, align 8
  store ptr %0, ptr %3, align 8
  store ptr %1, ptr %4, align 8
  %5 = load ptr, ptr %3, align 8
  %6 = getelementptr inbounds %class.FileLocker, ptr %5, i32 0, i32 0
  %7 = load ptr, ptr %4, align 8
  store ptr %7, ptr %6, align 8
  %8 = getelementptr inbounds %class.FileLocker, ptr %5, i32 0, i32 0
  %9 = load ptr, ptr %8, align 8
  call void @_ZN2os9flockfileEP8_IO_FILE(ptr noundef %9)
  ret void
}

; Function Attrs: mustprogress nounwind uwtable
define hidden noundef i32 @_ZN19LogFileStreamOutput5writeERK14LogDecorationsPKc(ptr noundef nonnull align 8 dereferenceable(264) %0, ptr noundef nonnull align 8 dereferenceable(48) %1, ptr noundef %2) unnamed_addr #1 align 2 {
  %4 = alloca i32, align 4
  %5 = alloca ptr, align 8
  %6 = alloca ptr, align 8
  %7 = alloca ptr, align 8
  %8 = alloca ptr, align 8
  %9 = alloca %class.FileLocker, align 8
  %10 = alloca i32, align 4
  store ptr %0, ptr %5, align 8
  store ptr %1, ptr %6, align 8
  store ptr %2, ptr %7, align 8
  %11 = load ptr, ptr %5, align 8
  %12 = call noundef ptr @_ZN14AsyncLogWriter8instanceEv()
  store ptr %12, ptr %8, align 8
  %13 = load ptr, ptr %8, align 8
  %14 = icmp ne ptr %13, null
  br i1 %14, label %15, label %19

15:                                               ; preds = %3
  %16 = load ptr, ptr %8, align 8
  %17 = load ptr, ptr %6, align 8
  %18 = load ptr, ptr %7, align 8
  call void @_ZN14AsyncLogWriter7enqueueER19LogFileStreamOutputRK14LogDecorationsPKc(ptr noundef nonnull align 8 dereferenceable(1184) %16, ptr noundef nonnull align 8 dereferenceable(264) %11, ptr noundef nonnull align 8 dereferenceable(48) %17, ptr noundef %18)
  store i32 0, ptr %4, align 4
  br label %31

19:                                               ; preds = %3
  %20 = getelementptr inbounds %class.LogFileStreamOutput, ptr %11, i32 0, i32 3
  %21 = load ptr, ptr %20, align 8
  call void @_ZN10FileLockerC2EP8_IO_FILE(ptr noundef nonnull align 8 dereferenceable(8) %9, ptr noundef %21)
  %22 = load ptr, ptr %6, align 8
  %23 = load ptr, ptr %7, align 8
  %24 = call noundef i32 @_ZN19LogFileStreamOutput14write_internalERK14LogDecorationsPKc(ptr noundef nonnull align 8 dereferenceable(264) %11, ptr noundef nonnull align 8 dereferenceable(48) %22, ptr noundef %23)
  store i32 %24, ptr %10, align 4
  %25 = call noundef zeroext i1 @_ZN19LogFileStreamOutput5flushEv(ptr noundef nonnull align 8 dereferenceable(264) %11)
  br i1 %25, label %26, label %28

26:                                               ; preds = %19
  %27 = load i32, ptr %10, align 4
  br label %29

28:                                               ; preds = %19
  br label %29

29:                                               ; preds = %28, %26
  %30 = phi i32 [ %27, %26 ], [ -1, %28 ]
  store i32 %30, ptr %4, align 4
  call void @_ZN10FileLockerD2Ev(ptr noundef nonnull align 8 dereferenceable(8) %9) #10
  br label %31

31:                                               ; preds = %29, %15
  %32 = load i32, ptr %4, align 4
  ret i32 %32
}