; Function Attrs: mustprogress nounwind uwtable
define hidden noundef i32 @_ZN19LogFileStreamOutput5writeERK14LogDecorationsPKc(ptr noundef nonnull align 8 dereferenceable(264) %0, ptr noundef nonnull align 8 dereferenceable(48) %1, ptr noundef %2) unnamed_addr #0 align 2 {
  %4 = tail call noundef ptr @_ZN14AsyncLogWriter8instanceEv() #10
  %.not = icmp eq ptr %4, null
  br i1 %.not, label %6, label %5

5:                                                ; preds = %3
  tail call void @_ZN14AsyncLogWriter7enqueueER19LogFileStreamOutputRK14LogDecorationsPKc(ptr noundef nonnull align 8 dereferenceable(1184) %4, ptr noundef nonnull align 8 dereferenceable(264) %0, ptr noundef nonnull align 8 dereferenceable(48) %1, ptr noundef %2) #10
  br label %12

6:                                                ; preds = %3
  %7 = getelementptr inbounds i8, ptr %0, i64 160
  %8 = load ptr, ptr %7, align 8
  tail call void @_ZN2os9flockfileEP8_IO_FILE(ptr noundef %8) #10
  %9 = tail call noundef i32 @_ZN19LogFileStreamOutput14write_internalERK14LogDecorationsPKc(ptr noundef nonnull align 8 dereferenceable(264) %0, ptr noundef nonnull align 8 dereferenceable(48) %1, ptr noundef %2)
  %10 = tail call noundef zeroext i1 @_ZN19LogFileStreamOutput5flushEv(ptr noundef nonnull align 8 dereferenceable(264) %0)
  %11 = select i1 %10, i32 %9, i32 -1
  tail call void @_ZN2os11funlockfileEP8_IO_FILE(ptr noundef %8) #10
  br label %12

12:                                               ; preds = %6, %5
  %.0 = phi i32 [ 0, %5 ], [ %11, %6 ]
  ret i32 %.0
}